; ModuleID = '16/465.c'
source_filename = "16/465.c"
target datalayout = "e-m:e-p270:32:32-p271:32:32-p272:64:64-i64:64-f80:128-n8:16:32:64-S128"
target triple = "x86_64-pc-linux-gnu"

@.str = private unnamed_addr constant [3 x i8] c"%d\00", align 1
@.str.1 = private unnamed_addr constant [5 x i8] c"%d%d\00", align 1
@.str.2 = private unnamed_addr constant [7 x i8] c"%d%d%d\00", align 1
@.str.3 = private unnamed_addr constant [9 x i8] c"%d%d%d%d\00", align 1
@.str.4 = private unnamed_addr constant [11 x i8] c"%d%d%d%d%d\00", align 1

; Function Attrs: noinline nounwind uwtable
define dso_local i32 @main() #0 {
  %1 = alloca i32, align 4
  %2 = alloca i32, align 4
  %3 = alloca i32, align 4
  %4 = alloca i32, align 4
  %5 = alloca i32, align 4
  %6 = alloca i32, align 4
  %7 = alloca i32, align 4
  %8 = alloca i32, align 4
  %9 = alloca i32, align 4
  %10 = alloca i32, align 4
  store i32 0, i32* %1, align 4
  %11 = call i32 (i8*, ...) @__isoc99_scanf(i8* getelementptr inbounds ([3 x i8], [3 x i8]* @.str, i64 0, i64 0), i32* %2)
  %12 = load i32, i32* %2, align 4
  %13 = sdiv i32 %12, 10000
  %14 = sitofp i32 %13 to double
  %15 = call double @llvm.floor.f64(double %14)
  %16 = fptosi double %15 to i32
  store i32 %16, i32* %3, align 4
  %17 = load i32, i32* %2, align 4
  %18 = load i32, i32* %3, align 4
  %19 = mul nsw i32 %18, 10000
  %20 = sub nsw i32 %17, %19
  store i32 %20, i32* %2, align 4
  %21 = load i32, i32* %2, align 4
  %22 = sdiv i32 %21, 1000
  %23 = sitofp i32 %22 to double
  %24 = call double @llvm.floor.f64(double %23)
  %25 = fptosi double %24 to i32
  store i32 %25, i32* %4, align 4
  %26 = load i32, i32* %2, align 4
  %27 = load i32, i32* %4, align 4
  %28 = mul nsw i32 %27, 1000
  %29 = sub nsw i32 %26, %28
  store i32 %29, i32* %2, align 4
  %30 = load i32, i32* %2, align 4
  %31 = sdiv i32 %30, 100
  %32 = sitofp i32 %31 to double
  %33 = call double @llvm.floor.f64(double %32)
  %34 = fptosi double %33 to i32
  store i32 %34, i32* %5, align 4
  %35 = load i32, i32* %2, align 4
  %36 = load i32, i32* %5, align 4
  %37 = mul nsw i32 %36, 100
  %38 = sub nsw i32 %35, %37
  store i32 %38, i32* %2, align 4
  %39 = load i32, i32* %2, align 4
  %40 = sdiv i32 %39, 10
  %41 = sitofp i32 %40 to double
  %42 = call double @llvm.floor.f64(double %41)
  %43 = fptosi double %42 to i32
  store i32 %43, i32* %6, align 4
  %44 = load i32, i32* %2, align 4
  %45 = load i32, i32* %6, align 4
  %46 = mul nsw i32 %45, 10
  %47 = sub nsw i32 %44, %46
  store i32 %47, i32* %2, align 4
  %48 = load i32, i32* %3, align 4
  %49 = icmp eq i32 %48, 0
  br i1 %49, label %50, label %80

50:                                               ; preds = %0
  %51 = load i32, i32* %4, align 4
  %52 = icmp eq i32 %51, 0
  br i1 %52, label %53, label %73

53:                                               ; preds = %50
  %54 = load i32, i32* %5, align 4
  %55 = icmp eq i32 %54, 0
  br i1 %55, label %56, label %67

56:                                               ; preds = %53
  %57 = load i32, i32* %6, align 4
  %58 = icmp eq i32 %57, 0
  br i1 %58, label %59, label %62

59:                                               ; preds = %56
  %60 = load i32, i32* %2, align 4
  %61 = call i32 (i8*, ...) @printf(i8* getelementptr inbounds ([3 x i8], [3 x i8]* @.str, i64 0, i64 0), i32 %60)
  br label %66

62:                                               ; preds = %56
  %63 = load i32, i32* %2, align 4
  %64 = load i32, i32* %6, align 4
  %65 = call i32 (i8*, ...) @printf(i8* getelementptr inbounds ([5 x i8], [5 x i8]* @.str.1, i64 0, i64 0), i32 %63, i32 %64)
  br label %66

66:                                               ; preds = %62, %59
  br label %72

67:                                               ; preds = %53
  %68 = load i32, i32* %2, align 4
  %69 = load i32, i32* %6, align 4
  %70 = load i32, i32* %5, align 4
  %71 = call i32 (i8*, ...) @printf(i8* getelementptr inbounds ([7 x i8], [7 x i8]* @.str.2, i64 0, i64 0), i32 %68, i32 %69, i32 %70)
  br label %72

72:                                               ; preds = %67, %66
  br label %79

73:                                               ; preds = %50
  %74 = load i32, i32* %2, align 4
  %75 = load i32, i32* %6, align 4
  %76 = load i32, i32* %5, align 4
  %77 = load i32, i32* %4, align 4
  %78 = call i32 (i8*, ...) @printf(i8* getelementptr inbounds ([9 x i8], [9 x i8]* @.str.3, i64 0, i64 0), i32 %74, i32 %75, i32 %76, i32 %77)
  br label %79

79:                                               ; preds = %73, %72
  br label %87

80:                                               ; preds = %0
  %81 = load i32, i32* %2, align 4
  %82 = load i32, i32* %6, align 4
  %83 = load i32, i32* %5, align 4
  %84 = load i32, i32* %4, align 4
  %85 = load i32, i32* %3, align 4
  %86 = call i32 (i8*, ...) @printf(i8* getelementptr inbounds ([11 x i8], [11 x i8]* @.str.4, i64 0, i64 0), i32 %81, i32 %82, i32 %83, i32 %84, i32 %85)
  br label %87

87:                                               ; preds = %80, %79
  %88 = load i32, i32* %1, align 4
  ret i32 %88
}

declare dso_local i32 @__isoc99_scanf(i8*, ...) #1

; Function Attrs: nounwind readnone speculatable willreturn
declare double @llvm.floor.f64(double) #2

declare dso_local i32 @printf(i8*, ...) #1


!llvm.module.flags = !{!0}
!llvm.ident = !{!1}

!0 = !{i32 1, !"wchar_size", i32 4}
!1 = !{!"clang version 10.0.0-4ubuntu1 "}
